; Function Attrs: nofree nounwind uwtable
define dso_local void @secs2time_str(i64 noundef %0, ptr noundef writeonly captures(none) %1, i32 noundef %2) #1 {
  %4 = icmp eq i64 %0, 4294967295
  br i1 %4, label %5, label %8

5:                                                ; preds = %3
  %6 = sext i32 %2 to i64
  %7 = tail call i32 (ptr, i64, ptr, ...) @snprintf(ptr noundef %1, i64 noundef %6, ptr noundef nonnull @.str.12) #13
  br label %28

8:                                                ; preds = %3
  %9 = srem i64 %0, 60
  %10 = sdiv i64 %0, 60
  %11 = srem i64 %10, 60
  %12 = sdiv i64 %0, 3600
  %13 = srem i64 %12, 24
  %14 = sdiv i64 %0, 86400
  %15 = icmp slt i64 %0, -86399
  %16 = or i64 %13, %9
  %17 = or i64 %16, %11
  %18 = icmp slt i64 %17, 0
  %or.cond5 = or i1 %15, %18
  br i1 %or.cond5, label %19, label %22

19:                                               ; preds = %8
  %20 = sext i32 %2 to i64
  %21 = tail call i32 (ptr, i64, ptr, ...) @snprintf(ptr noundef %1, i64 noundef %20, ptr noundef nonnull @.str.15) #13
  br label %28

22:                                               ; preds = %8
  %.off = add i64 %0, 86399
  %.not = icmp ult i64 %.off, 172799
  %23 = sext i32 %2 to i64
  br i1 %.not, label %26, label %24

24:                                               ; preds = %22
  %25 = tail call i32 (ptr, i64, ptr, ...) @snprintf(ptr noundef %1, i64 noundef %23, ptr noundef nonnull @.str.16, i64 noundef %14, i64 noundef %13, i64 noundef %11, i64 noundef %9) #13
  br label %28

26:                                               ; preds = %22
  %27 = tail call i32 (ptr, i64, ptr, ...) @snprintf(ptr noundef %1, i64 noundef %23, ptr noundef nonnull @.str.17, i64 noundef %13, i64 noundef %11, i64 noundef %9) #13
  br label %28

28:                                               ; preds = %19, %26, %24, %5
  ret void
}